; ModuleID = '39/2050.c'
source_filename = "39/2050.c"
target datalayout = "e-m:e-p270:32:32-p271:32:32-p272:64:64-i64:64-f80:128-n8:16:32:64-S128"
target triple = "x86_64-pc-linux-gnu"

%struct.jiangli = type { [20 x i8], i32, i32, i8, i8, i32, i32 }

@.str = private unnamed_addr constant [3 x i8] c"%d\00", align 1
@.str.1 = private unnamed_addr constant [18 x i8] c"%s %d %d %c %c %d\00", align 1
@stu = common dso_local global [100 x %struct.jiangli] zeroinitializer, align 16
@.str.2 = private unnamed_addr constant [9 x i8] c"%s\0A%d\0A%d\00", align 1

; Function Attrs: noinline nounwind uwtable
define dso_local void @main() #0 {
  %1 = alloca i32, align 4
  %2 = alloca i32, align 4
  %3 = alloca i32, align 4
  %4 = alloca i32, align 4
  %5 = alloca i32, align 4
  store i32 0, i32* %4, align 4
  %6 = call i32 (i8*, ...) @__isoc99_scanf(i8* getelementptr inbounds ([3 x i8], [3 x i8]* @.str, i64 0, i64 0), i32* %1)
  store i32 0, i32* %2, align 4
  br label %7

7:                                                ; preds = %38, %0
  %8 = load i32, i32* %2, align 4
  %9 = load i32, i32* %1, align 4
  %10 = icmp slt i32 %8, %9
  br i1 %10, label %11, label %41

11:                                               ; preds = %7
  %12 = load i32, i32* %2, align 4
  %13 = sext i32 %12 to i64
  %14 = getelementptr inbounds [100 x %struct.jiangli], [100 x %struct.jiangli]* @stu, i64 0, i64 %13
  %15 = getelementptr inbounds %struct.jiangli, %struct.jiangli* %14, i32 0, i32 0
  %16 = getelementptr inbounds [20 x i8], [20 x i8]* %15, i64 0, i64 0
  %17 = load i32, i32* %2, align 4
  %18 = sext i32 %17 to i64
  %19 = getelementptr inbounds [100 x %struct.jiangli], [100 x %struct.jiangli]* @stu, i64 0, i64 %18
  %20 = getelementptr inbounds %struct.jiangli, %struct.jiangli* %19, i32 0, i32 1
  %21 = load i32, i32* %2, align 4
  %22 = sext i32 %21 to i64
  %23 = getelementptr inbounds [100 x %struct.jiangli], [100 x %struct.jiangli]* @stu, i64 0, i64 %22
  %24 = getelementptr inbounds %struct.jiangli, %struct.jiangli* %23, i32 0, i32 2
  %25 = load i32, i32* %2, align 4
  %26 = sext i32 %25 to i64
  %27 = getelementptr inbounds [100 x %struct.jiangli], [100 x %struct.jiangli]* @stu, i64 0, i64 %26
  %28 = getelementptr inbounds %struct.jiangli, %struct.jiangli* %27, i32 0, i32 3
  %29 = load i32, i32* %2, align 4
  %30 = sext i32 %29 to i64
  %31 = getelementptr inbounds [100 x %struct.jiangli], [100 x %struct.jiangli]* @stu, i64 0, i64 %30
  %32 = getelementptr inbounds %struct.jiangli, %struct.jiangli* %31, i32 0, i32 4
  %33 = load i32, i32* %2, align 4
  %34 = sext i32 %33 to i64
  %35 = getelementptr inbounds [100 x %struct.jiangli], [100 x %struct.jiangli]* @stu, i64 0, i64 %34
  %36 = getelementptr inbounds %struct.jiangli, %struct.jiangli* %35, i32 0, i32 5
  %37 = call i32 (i8*, ...) @__isoc99_scanf(i8* getelementptr inbounds ([18 x i8], [18 x i8]* @.str.1, i64 0, i64 0), i8* %16, i32* %20, i32* %24, i8* %28, i8* %32, i32* %36)
  br label %38

38:                                               ; preds = %11
  %39 = load i32, i32* %2, align 4
  %40 = add nsw i32 %39, 1
  store i32 %40, i32* %2, align 4
  br label %7

41:                                               ; preds = %7
  store i32 0, i32* %2, align 4
  br label %42

42:                                               ; preds = %151, %41
  %43 = load i32, i32* %2, align 4
  %44 = load i32, i32* %1, align 4
  %45 = icmp slt i32 %43, %44
  br i1 %45, label %46, label %154

46:                                               ; preds = %42
  %47 = load i32, i32* %2, align 4
  %48 = sext i32 %47 to i64
  %49 = getelementptr inbounds [100 x %struct.jiangli], [100 x %struct.jiangli]* @stu, i64 0, i64 %48
  %50 = getelementptr inbounds %struct.jiangli, %struct.jiangli* %49, i32 0, i32 6
  store i32 0, i32* %50, align 4
  %51 = load i32, i32* %2, align 4
  %52 = sext i32 %51 to i64
  %53 = getelementptr inbounds [100 x %struct.jiangli], [100 x %struct.jiangli]* @stu, i64 0, i64 %52
  %54 = getelementptr inbounds %struct.jiangli, %struct.jiangli* %53, i32 0, i32 1
  %55 = load i32, i32* %54, align 4
  %56 = icmp sgt i32 %55, 80
  br i1 %56, label %57, label %71

57:                                               ; preds = %46
  %58 = load i32, i32* %2, align 4
  %59 = sext i32 %58 to i64
  %60 = getelementptr inbounds [100 x %struct.jiangli], [100 x %struct.jiangli]* @stu, i64 0, i64 %59
  %61 = getelementptr inbounds %struct.jiangli, %struct.jiangli* %60, i32 0, i32 5
  %62 = load i32, i32* %61, align 8
  %63 = icmp sge i32 %62, 1
  br i1 %63, label %64, label %71

64:                                               ; preds = %57
  %65 = load i32, i32* %2, align 4
  %66 = sext i32 %65 to i64
  %67 = getelementptr inbounds [100 x %struct.jiangli], [100 x %struct.jiangli]* @stu, i64 0, i64 %66
  %68 = getelementptr inbounds %struct.jiangli, %struct.jiangli* %67, i32 0, i32 6
  %69 = load i32, i32* %68, align 4
  %70 = add nsw i32 %69, 8000
  store i32 %70, i32* %68, align 4
  br label %71

71:                                               ; preds = %64, %57, %46
  %72 = load i32, i32* %2, align 4
  %73 = sext i32 %72 to i64
  %74 = getelementptr inbounds [100 x %struct.jiangli], [100 x %struct.jiangli]* @stu, i64 0, i64 %73
  %75 = getelementptr inbounds %struct.jiangli, %struct.jiangli* %74, i32 0, i32 1
  %76 = load i32, i32* %75, align 4
  %77 = icmp sgt i32 %76, 85
  br i1 %77, label %78, label %92

78:                                               ; preds = %71
  %79 = load i32, i32* %2, align 4
  %80 = sext i32 %79 to i64
  %81 = getelementptr inbounds [100 x %struct.jiangli], [100 x %struct.jiangli]* @stu, i64 0, i64 %80
  %82 = getelementptr inbounds %struct.jiangli, %struct.jiangli* %81, i32 0, i32 2
  %83 = load i32, i32* %82, align 8
  %84 = icmp sgt i32 %83, 80
  br i1 %84, label %85, label %92

85:                                               ; preds = %78
  %86 = load i32, i32* %2, align 4
  %87 = sext i32 %86 to i64
  %88 = getelementptr inbounds [100 x %struct.jiangli], [100 x %struct.jiangli]* @stu, i64 0, i64 %87
  %89 = getelementptr inbounds %struct.jiangli, %struct.jiangli* %88, i32 0, i32 6
  %90 = load i32, i32* %89, align 4
  %91 = add nsw i32 %90, 4000
  store i32 %91, i32* %89, align 4
  br label %92

92:                                               ; preds = %85, %78, %71
  %93 = load i32, i32* %2, align 4
  %94 = sext i32 %93 to i64
  %95 = getelementptr inbounds [100 x %struct.jiangli], [100 x %struct.jiangli]* @stu, i64 0, i64 %94
  %96 = getelementptr inbounds %struct.jiangli, %struct.jiangli* %95, i32 0, i32 1
  %97 = load i32, i32* %96, align 4
  %98 = icmp sgt i32 %97, 90
  br i1 %98, label %99, label %106

99:                                               ; preds = %92
  %100 = load i32, i32* %2, align 4
  %101 = sext i32 %100 to i64
  %102 = getelementptr inbounds [100 x %struct.jiangli], [100 x %struct.jiangli]* @stu, i64 0, i64 %101
  %103 = getelementptr inbounds %struct.jiangli, %struct.jiangli* %102, i32 0, i32 6
  %104 = load i32, i32* %103, align 4
  %105 = add nsw i32 %104, 2000
  store i32 %105, i32* %103, align 4
  br label %106

106:                                              ; preds = %99, %92
  %107 = load i32, i32* %2, align 4
  %108 = sext i32 %107 to i64
  %109 = getelementptr inbounds [100 x %struct.jiangli], [100 x %struct.jiangli]* @stu, i64 0, i64 %108
  %110 = getelementptr inbounds %struct.jiangli, %struct.jiangli* %109, i32 0, i32 1
  %111 = load i32, i32* %110, align 4
  %112 = icmp sgt i32 %111, 85
  br i1 %112, label %113, label %128

113:                                              ; preds = %106
  %114 = load i32, i32* %2, align 4
  %115 = sext i32 %114 to i64
  %116 = getelementptr inbounds [100 x %struct.jiangli], [100 x %struct.jiangli]* @stu, i64 0, i64 %115
  %117 = getelementptr inbounds %struct.jiangli, %struct.jiangli* %116, i32 0, i32 4
  %118 = load i8, i8* %117, align 1
  %119 = sext i8 %118 to i32
  %120 = icmp eq i32 %119, 89
  br i1 %120, label %121, label %128

121:                                              ; preds = %113
  %122 = load i32, i32* %2, align 4
  %123 = sext i32 %122 to i64
  %124 = getelementptr inbounds [100 x %struct.jiangli], [100 x %struct.jiangli]* @stu, i64 0, i64 %123
  %125 = getelementptr inbounds %struct.jiangli, %struct.jiangli* %124, i32 0, i32 6
  %126 = load i32, i32* %125, align 4
  %127 = add nsw i32 %126, 1000
  store i32 %127, i32* %125, align 4
  br label %128

128:                                              ; preds = %121, %113, %106
  %129 = load i32, i32* %2, align 4
  %130 = sext i32 %129 to i64
  %131 = getelementptr inbounds [100 x %struct.jiangli], [100 x %struct.jiangli]* @stu, i64 0, i64 %130
  %132 = getelementptr inbounds %struct.jiangli, %struct.jiangli* %131, i32 0, i32 2
  %133 = load i32, i32* %132, align 8
  %134 = icmp sgt i32 %133, 80
  br i1 %134, label %135, label %150

135:                                              ; preds = %128
  %136 = load i32, i32* %2, align 4
  %137 = sext i32 %136 to i64
  %138 = getelementptr inbounds [100 x %struct.jiangli], [100 x %struct.jiangli]* @stu, i64 0, i64 %137
  %139 = getelementptr inbounds %struct.jiangli, %struct.jiangli* %138, i32 0, i32 3
  %140 = load i8, i8* %139, align 4
  %141 = sext i8 %140 to i32
  %142 = icmp eq i32 %141, 89
  br i1 %142, label %143, label %150

143:                                              ; preds = %135
  %144 = load i32, i32* %2, align 4
  %145 = sext i32 %144 to i64
  %146 = getelementptr inbounds [100 x %struct.jiangli], [100 x %struct.jiangli]* @stu, i64 0, i64 %145
  %147 = getelementptr inbounds %struct.jiangli, %struct.jiangli* %146, i32 0, i32 6
  %148 = load i32, i32* %147, align 4
  %149 = add nsw i32 %148, 850
  store i32 %149, i32* %147, align 4
  br label %150

150:                                              ; preds = %143, %135, %128
  br label %151

151:                                              ; preds = %150
  %152 = load i32, i32* %2, align 4
  %153 = add nsw i32 %152, 1
  store i32 %153, i32* %2, align 4
  br label %42

154:                                              ; preds = %42
  %155 = load i32, i32* getelementptr inbounds ([100 x %struct.jiangli], [100 x %struct.jiangli]* @stu, i64 0, i64 0, i32 6), align 4
  store i32 %155, i32* %3, align 4
  store i32 0, i32* %2, align 4
  br label %156

156:                                              ; preds = %183, %154
  %157 = load i32, i32* %2, align 4
  %158 = load i32, i32* %1, align 4
  %159 = icmp slt i32 %157, %158
  br i1 %159, label %160, label %186

160:                                              ; preds = %156
  %161 = load i32, i32* %4, align 4
  %162 = load i32, i32* %2, align 4
  %163 = sext i32 %162 to i64
  %164 = getelementptr inbounds [100 x %struct.jiangli], [100 x %struct.jiangli]* @stu, i64 0, i64 %163
  %165 = getelementptr inbounds %struct.jiangli, %struct.jiangli* %164, i32 0, i32 6
  %166 = load i32, i32* %165, align 4
  %167 = add nsw i32 %161, %166
  store i32 %167, i32* %4, align 4
  %168 = load i32, i32* %3, align 4
  %169 = load i32, i32* %2, align 4
  %170 = sext i32 %169 to i64
  %171 = getelementptr inbounds [100 x %struct.jiangli], [100 x %struct.jiangli]* @stu, i64 0, i64 %170
  %172 = getelementptr inbounds %struct.jiangli, %struct.jiangli* %171, i32 0, i32 6
  %173 = load i32, i32* %172, align 4
  %174 = icmp slt i32 %168, %173
  br i1 %174, label %175, label %182

175:                                              ; preds = %160
  %176 = load i32, i32* %2, align 4
  %177 = sext i32 %176 to i64
  %178 = getelementptr inbounds [100 x %struct.jiangli], [100 x %struct.jiangli]* @stu, i64 0, i64 %177
  %179 = getelementptr inbounds %struct.jiangli, %struct.jiangli* %178, i32 0, i32 6
  %180 = load i32, i32* %179, align 4
  store i32 %180, i32* %3, align 4
  %181 = load i32, i32* %2, align 4
  store i32 %181, i32* %5, align 4
  br label %182

182:                                              ; preds = %175, %160
  br label %183

183:                                              ; preds = %182
  %184 = load i32, i32* %2, align 4
  %185 = add nsw i32 %184, 1
  store i32 %185, i32* %2, align 4
  br label %156

186:                                              ; preds = %156
  %187 = load i32, i32* %5, align 4
  %188 = sext i32 %187 to i64
  %189 = getelementptr inbounds [100 x %struct.jiangli], [100 x %struct.jiangli]* @stu, i64 0, i64 %188
  %190 = getelementptr inbounds %struct.jiangli, %struct.jiangli* %189, i32 0, i32 0
  %191 = getelementptr inbounds [20 x i8], [20 x i8]* %190, i64 0, i64 0
  %192 = load i32, i32* %5, align 4
  %193 = sext i32 %192 to i64
  %194 = getelementptr inbounds [100 x %struct.jiangli], [100 x %struct.jiangli]* @stu, i64 0, i64 %193
  %195 = getelementptr inbounds %struct.jiangli, %struct.jiangli* %194, i32 0, i32 6
  %196 = load i32, i32* %195, align 4
  %197 = load i32, i32* %4, align 4
  %198 = call i32 (i8*, ...) @printf(i8* getelementptr inbounds ([9 x i8], [9 x i8]* @.str.2, i64 0, i64 0), i8* %191, i32 %196, i32 %197)
  ret void
}

declare dso_local i32 @__isoc99_scanf(i8*, ...) #1

declare dso_local i32 @printf(i8*, ...) #1


!llvm.module.flags = !{!0}
!llvm.ident = !{!1}

!0 = !{i32 1, !"wchar_size", i32 4}
!1 = !{!"clang version 10.0.0-4ubuntu1 "}
